CCS PCH C Compiler, Version 4.140, 22098               23-set-14 11:13

               Filename:   D:\Projetos\L298N\l298n.lst

               ROM used:   420 bytes (1%)
                           Largest free fragment is 32344
               RAM used:   35 (2%) at main() level
                           36 (2%) worst case
               Stack:     2 worst case (1 in main + 1 for interrupts)

*
0000:  GOTO   011C
*
0008:  MOVWF  04
000A:  MOVFF  FD8,05
000E:  MOVFF  FE0,06
0012:  MOVLB  0
0014:  MOVFF  FE9,0C
0018:  MOVFF  FEA,07
001C:  MOVFF  FE1,08
0020:  MOVFF  FE2,09
0024:  MOVFF  FD9,0A
0028:  MOVFF  FDA,0B
002C:  MOVFF  FF3,12
0030:  MOVFF  FF4,13
0034:  MOVFF  FFA,14
0038:  MOVFF  FF5,15
003C:  MOVFF  FF6,16
0040:  MOVFF  FF7,17
0044:  MOVFF  00,0E
0048:  MOVFF  01,0F
004C:  MOVFF  02,10
0050:  MOVFF  03,11
0054:  BTFSS  FF2.5
0056:  GOTO   0060
005A:  BTFSC  FF2.2
005C:  GOTO   00AE
0060:  MOVFF  0E,00
0064:  MOVFF  0F,01
0068:  MOVFF  10,02
006C:  MOVFF  11,03
0070:  MOVFF  0C,FE9
0074:  MOVFF  07,FEA
0078:  BSF    07.7
007A:  MOVFF  08,FE1
007E:  MOVFF  09,FE2
0082:  MOVFF  0A,FD9
0086:  MOVFF  0B,FDA
008A:  MOVFF  12,FF3
008E:  MOVFF  13,FF4
0092:  MOVFF  14,FFA
0096:  MOVFF  15,FF5
009A:  MOVFF  16,FF6
009E:  MOVFF  17,FF7
00A2:  MOVF   04,W
00A4:  MOVFF  06,FE0
00A8:  MOVFF  05,FD8
00AC:  RETFIE 0
.................... /* 
....................  * l298n.c 
....................  * 
....................  *  Created on: 22/09/2014 
....................  *      Author: cuki 
....................  */ 
....................  
.................... #include<18F252.h> 
.................... //////// Standard Header file for the PIC18F252 device //////////////// 
.................... #device PIC18F252 
.................... #list 
....................  
....................  
.................... #FUSES HS 
....................  
.................... #use delay(clock=15MHz) 
*
00F2:  CLRF   FEA
00F4:  MOVLW  21
00F6:  MOVWF  FE9
00F8:  MOVF   FEF,W
00FA:  BZ    0118
00FC:  MOVLW  04
00FE:  MOVWF  01
0100:  CLRF   00
0102:  DECFSZ 00,F
0104:  BRA    0102
0106:  DECFSZ 01,F
0108:  BRA    0100
010A:  MOVLW  DC
010C:  MOVWF  00
010E:  DECFSZ 00,F
0110:  BRA    010E
0112:  NOP   
0114:  DECFSZ FEF,F
0116:  BRA    00FC
0118:  GOTO   018A (RETURN)
.................... //#use delay(clock=9MHz) 
.................... #use rs232(xmit=PIN_C6, baud=9600) 
....................  
.................... #define debouce 100 
.................... #define tmr0reg 55118 
.................... //#define tmr0reg 59285 
....................  
.................... #define pin_sobe PIN_B0 
.................... #define pin_desce PIN_B1 
....................  
.................... short ctrl_bto = TRUE; 
.................... short ba; 
.................... short bb; 
.................... short dir; 
....................  
.................... int estado; 
.................... int saida[6] = { 0b101, 0b100, 0b110, 0b010, 0b011, 0b001 }; 
....................  
.................... #INT_TIMER0 
.................... void isr_timer0() { 
.................... 	clear_interrupt(INT_TIMER0); 
*
00AE:  BCF    FF2.2
.................... 	set_timer0(tmr0reg); 
00B0:  MOVLW  D7
00B2:  MOVWF  FD7
00B4:  MOVLW  4E
00B6:  MOVWF  FD6
.................... 	if (dir) { 
00B8:  BTFSS  19.3
00BA:  BRA    00C8
.................... 		estado++; 
00BC:  INCF   1A,F
.................... 		if (estado > 5) 
00BE:  MOVF   1A,W
00C0:  SUBLW  05
00C2:  BC    00C6
.................... 			estado = 0; 
00C4:  CLRF   1A
.................... 	} else { 
00C6:  BRA    00D4
.................... 		estado--; 
00C8:  DECF   1A,F
.................... 		if (estado > 5) 
00CA:  MOVF   1A,W
00CC:  SUBLW  05
00CE:  BC    00D4
.................... 			estado = 5; 
00D0:  MOVLW  05
00D2:  MOVWF  1A
.................... 	} 
.................... 	output_c(saida[estado]); 
00D4:  CLRF   03
00D6:  MOVF   1A,W
00D8:  ADDLW  1B
00DA:  MOVWF  FE9
00DC:  MOVLW  00
00DE:  ADDWFC 03,W
00E0:  MOVWF  FEA
00E2:  MOVFF  FEF,23
00E6:  CLRF   F94
00E8:  MOVFF  23,F8B
.................... } 
....................  
00EC:  BCF    FF2.2
00EE:  GOTO   0060
.................... int main(void) { 
*
011C:  CLRF   FF8
011E:  BCF    FD0.7
0120:  BSF    07.7
0122:  CLRF   FEA
0124:  CLRF   FE9
0126:  BCF    F94.6
0128:  BSF    F8B.6
012A:  BSF    19.0
012C:  BSF    FC1.0
012E:  BSF    FC1.1
0130:  BSF    FC1.2
0132:  BCF    FC1.3
0134:  MOVLW  05
0136:  MOVWF  1B
0138:  MOVLW  04
013A:  MOVWF  1C
013C:  MOVLW  06
013E:  MOVWF  1D
0140:  MOVLW  02
0142:  MOVWF  1E
0144:  MOVLW  03
0146:  MOVWF  1F
0148:  MOVLW  01
014A:  MOVWF  20
....................  
.................... 	setup_timer_0(T0_INTERNAL | T0_DIV_1); 
014C:  MOVLW  88
014E:  MOVWF  FD5
.................... 	set_timer0(tmr0reg); 
0150:  MOVLW  D7
0152:  MOVWF  FD7
0154:  MOVLW  4E
0156:  MOVWF  FD6
....................  
.................... //	enable_interrupts(INT_TIMER0); 
.................... 	enable_interrupts(GLOBAL); 
0158:  MOVLW  C0
015A:  IORWF  FF2,F
....................  
.................... 	while (TRUE) { 
.................... 		ba = !input(pin_sobe); 
015C:  BSF    F93.0
015E:  BCF    19.1
0160:  BTFSS  F81.0
0162:  BSF    19.1
.................... 		bb = !input(pin_desce); 
0164:  BSF    F93.1
0166:  BCF    19.2
0168:  BTFSS  F81.1
016A:  BSF    19.2
....................  
.................... 		if (ba ^ bb) { 
016C:  MOVLW  00
016E:  BTFSC  19.1
0170:  MOVLW  01
0172:  MOVWF  22
0174:  MOVLW  00
0176:  BTFSC  19.2
0178:  MOVLW  01
017A:  XORWF  22,W
017C:  BZ    0196
.................... 			if (ctrl_bto) { 
017E:  BTFSS  19.0
0180:  BRA    0194
.................... 				ctrl_bto = FALSE; 
0182:  BCF    19.0
.................... 				delay_ms(debouce); 
0184:  MOVLW  64
0186:  MOVWF  21
0188:  BRA    00F2
.................... 				clear_interrupt(INT_TIMER0); 
018A:  BCF    FF2.2
.................... 				enable_interrupts(INT_TIMER0); 
018C:  BSF    FF2.5
.................... 				dir = ba; 
018E:  BCF    19.3
0190:  BTFSC  19.1
0192:  BSF    19.3
.................... 			} 
.................... 		} else if (!ctrl_bto) { 
0194:  BRA    01A0
0196:  BTFSC  19.0
0198:  BRA    01A0
.................... 			ctrl_bto = TRUE; 
019A:  BSF    19.0
.................... 			disable_interrupts(INT_TIMER0); 
019C:  BCF    FF2.5
.................... 			estado = 0; 
019E:  CLRF   1A
.................... 		} 
.................... 	} 
01A0:  BRA    015C
....................  
.................... 	return 0; 
01A2:  MOVLW  00
01A4:  MOVWF  01
.................... } 
01A6:  SLEEP 

Configuration Fuses:
   Word  1: 2200   HS NOOSCSEN
   Word  2: 0E0E   PUT BROWNOUT BORV20 NOWDT WDT128
   Word  3: 0100   CCP2C1
   Word  4: 0081   STVREN NOLVP NODEBUG
   Word  5: C00F   NOPROTECT NOCPB NOCPD
   Word  6: E00F   NOWRT NOWRTC NOWRTB NOWRTD
   Word  7: 400F   NOEBTR NOEBTRB
